ccopy_reg
_reconstructor
p0
(cgoogle.oauth2.credentials
Credentials
p1
c__builtin__
object
p2
Ntp3
Rp4
(dp5
S'_quota_project_id'
p6
NsS'_token_uri'
p7
Vhttps://oauth2.googleapis.com/token
p8
sS'_client_secret'
p9
VN4acP0bFS-tHp2xIk3Y8I8TE
p10
sS'_id_token'
p11
NsS'token'
p12
Vya29.a0AfH6SMBaRwxtxjLwURuIysFRGhzCCYQzKRDyFK1ADdZqiT6dr_9Ri1yd23pCz-NWx_wUnnuUBH9Y6ANccanRT9H8SwdK5BJaqXi4Oxm7lCkIijkrP7MzQPbTq5f5D7LPVfMaXX4dC44anT9IsQ_aPLz3ny0NbAXwU4U
p13
sS'_refresh_token'
p14
V1//01ZuwmLiuufOoCgYIARAAGAESNwF-L9Ir-UgdkFuGkAVdMlowJEGW8dZgX6qwYwx8RFtJxn49cVV1HpdzkoyGDVU6-ppZlGHqRS0
p15
sS'_scopes'
p16
(lp17
S'https://www.googleapis.com/auth/spreadsheets.readonly'
p18
asS'_client_id'
p19
V650171006384-hlmou73t4n5bduunpt8mhgm518v6s904.apps.googleusercontent.com
p20
sS'expiry'
p21
cdatetime
datetime
p22
(S'\x07\xe4\x06\x1a\x163/\x03\xa0\x90'
p23
tp24
Rp25
sb.